; Function Attrs: mustprogress uwtable
define void @_ZN6Assimp6Base646DecodeERKNSt7__cxx1112basic_stringIcSt11char_traitsIcESaIcEEE(ptr dead_on_unwind noalias writable sret(%"class.std::vector") align 8 initializes((0, 24)) %0, ptr noundef nonnull readonly align 8 captures(none) dereferenceable(32) %1) local_unnamed_addr #0 personality ptr @__gxx_personality_v0 {
  %3 = alloca ptr, align 8
  tail call void @llvm.memset.p0.i64(ptr noundef nonnull align 8 dereferenceable(24) %0, i8 0, i64 24, i1 false)
  call void @llvm.lifetime.start.p0(i64 8, ptr nonnull %3) #17
  store ptr null, ptr %3, align 8
  %4 = load ptr, ptr %1, align 8
  %5 = getelementptr inbounds nuw i8, ptr %1, i64 8
  %6 = load i64, ptr %5, align 8
  %7 = invoke noundef i64 @_ZN6Assimp6Base646DecodeEPKcmRPh(ptr noundef %4, i64 noundef %6, ptr noundef nonnull align 8 dereferenceable(8) %3)
          to label %.noexc unwind label %12

.noexc:                                           ; preds = %2
  %8 = load ptr, ptr %3, align 8
  %9 = icmp eq ptr %8, null
  br i1 %9, label %21, label %10

10:                                               ; preds = %.noexc
  %11 = getelementptr inbounds nuw i8, ptr %8, i64 %7
  invoke void @_ZNSt6vectorIhSaIhEE13_M_assign_auxIPhEEvT_S4_St20forward_iterator_tag(ptr noundef nonnull align 8 dereferenceable(24) %0, ptr noundef nonnull %8, ptr noundef nonnull %11)
          to label %.noexc3 unwind label %12

.noexc3:                                          ; preds = %10
  tail call void @_ZdaPv(ptr noundef nonnull %8) #16
  br label %21

12:                                               ; preds = %10, %2
  %13 = landingpad { ptr, i32 }
          cleanup
  %14 = load ptr, ptr %0, align 8
  %.not.i.i.i = icmp eq ptr %14, null
  br i1 %.not.i.i.i, label %_ZNSt6vectorIhSaIhEED2Ev.exit, label %15

15:                                               ; preds = %12
  %16 = getelementptr inbounds nuw i8, ptr %0, i64 16
  %17 = load ptr, ptr %16, align 8
  %18 = ptrtoint ptr %17 to i64
  %19 = ptrtoint ptr %14 to i64
  %20 = sub i64 %18, %19
  tail call void @_ZdlPvm(ptr noundef nonnull %14, i64 noundef %20) #16
  br label %_ZNSt6vectorIhSaIhEED2Ev.exit

_ZNSt6vectorIhSaIhEED2Ev.exit:                    ; preds = %12, %15
  resume { ptr, i32 } %13

21:                                               ; preds = %.noexc3, %.noexc
  call void @llvm.lifetime.end.p0(i64 8, ptr nonnull %3) #17
  ret void
}